target datalayout = "e-m:e-p270:32:32-p271:32:32-p272:64:64-i64:64-i128:128-f80:128-n8:16:32:64-S128"
target triple = "x86_64-pc-linux-gnu"

%struct.ParseState = type { ptr, ptr, i32, i32, ptr, ptr, ptr, ptr, ptr, ptr, i8, ptr, ptr, ptr, ptr, ptr, ptr, i8, ptr, i32, i32, ptr, ptr, i8, i8, ptr, i8, i8, i8, i8, i8, ptr, ptr, ptr, ptr, ptr, ptr }
%union.ListCell = type { ptr }
%struct.ForEachState = type { ptr, i32 }
%struct.List = type { i32, i32, i32, ptr, [0 x %union.ListCell] }
%struct.FuncCall = type { i32, ptr, ptr, ptr, ptr, ptr, i8, i8, i8, i8, i32, i32 }
%struct.SortBy = type { i32, ptr, i32, i32, ptr, i32 }

; Function Attrs: nounwind uwtable
define dso_local ptr @transformExpr(ptr noundef %0, ptr noundef %1, i32 noundef %2) #0 {
  %4 = alloca ptr, align 8
  %5 = alloca ptr, align 8
  %6 = alloca i32, align 4
  %7 = alloca ptr, align 8
  %8 = alloca i32, align 4
  store ptr %0, ptr %4, align 8
  store ptr %1, ptr %5, align 8
  store i32 %2, ptr %6, align 4
  call void @llvm.lifetime.start.p0(i64 8, ptr %7) #8
  call void @llvm.lifetime.start.p0(i64 4, ptr %8) #8
  %9 = load ptr, ptr %4, align 8
  %10 = getelementptr inbounds nuw %struct.ParseState, ptr %9, i32 0, i32 19
  %11 = load i32, ptr %10, align 8
  store i32 %11, ptr %8, align 4
  %12 = load i32, ptr %6, align 4
  %13 = load ptr, ptr %4, align 8
  %14 = getelementptr inbounds nuw %struct.ParseState, ptr %13, i32 0, i32 19
  store i32 %12, ptr %14, align 8
  %15 = load ptr, ptr %4, align 8
  %16 = load ptr, ptr %5, align 8
  %17 = call ptr @transformExprRecurse(ptr noundef %15, ptr noundef %16)
  store ptr %17, ptr %7, align 8
  %18 = load i32, ptr %8, align 4
  %19 = load ptr, ptr %4, align 8
  %20 = getelementptr inbounds nuw %struct.ParseState, ptr %19, i32 0, i32 19
  store i32 %18, ptr %20, align 8
  %21 = load ptr, ptr %7, align 8
  call void @llvm.lifetime.end.p0(i64 4, ptr %8) #8
  call void @llvm.lifetime.end.p0(i64 8, ptr %7) #8
  ret ptr %21
}

; Function Attrs: nounwind uwtable
define internal ptr @transformFuncCall(ptr noundef %0, ptr noundef %1) #0 {
  %3 = alloca ptr, align 8
  %4 = alloca ptr, align 8
  %5 = alloca ptr, align 8
  %6 = alloca ptr, align 8
  %7 = alloca ptr, align 8
  %8 = alloca %struct.ForEachState, align 8
  %9 = alloca %struct.ForEachState, align 8
  %10 = alloca ptr, align 8
  store ptr %0, ptr %3, align 8
  store ptr %1, ptr %4, align 8
  call void @llvm.lifetime.start.p0(i64 8, ptr %5) #8
  %11 = load ptr, ptr %3, align 8
  %12 = getelementptr inbounds nuw %struct.ParseState, ptr %11, i32 0, i32 31
  %13 = load ptr, ptr %12, align 8
  store ptr %13, ptr %5, align 8
  call void @llvm.lifetime.start.p0(i64 8, ptr %6) #8
  call void @llvm.lifetime.start.p0(i64 8, ptr %7) #8
  store ptr null, ptr %6, align 8
  call void @llvm.lifetime.start.p0(i64 16, ptr %8) #8
  %14 = getelementptr inbounds nuw %struct.ForEachState, ptr %8, i32 0, i32 0
  %15 = load ptr, ptr %4, align 8
  %16 = getelementptr inbounds nuw %struct.FuncCall, ptr %15, i32 0, i32 2
  %17 = load ptr, ptr %16, align 8
  store ptr %17, ptr %14, align 8
  %18 = getelementptr inbounds nuw %struct.ForEachState, ptr %8, i32 0, i32 1
  store i32 0, ptr %18, align 8
  %19 = getelementptr i8, ptr %8, i64 12
  call void @llvm.memset.p0.i64(ptr align 4 %19, i8 0, i64 4, i1 false)
  br label %20

20:                                               ; preds = %53, %2
  %21 = getelementptr inbounds nuw %struct.ForEachState, ptr %8, i32 0, i32 0
  %22 = load ptr, ptr %21, align 8
  %23 = icmp ne ptr %22, null
  br i1 %23, label %24, label %41

24:                                               ; preds = %20
  %25 = getelementptr inbounds nuw %struct.ForEachState, ptr %8, i32 0, i32 1
  %26 = load i32, ptr %25, align 8
  %27 = getelementptr inbounds nuw %struct.ForEachState, ptr %8, i32 0, i32 0
  %28 = load ptr, ptr %27, align 8
  %29 = getelementptr inbounds nuw %struct.List, ptr %28, i32 0, i32 1
  %30 = load i32, ptr %29, align 4
  %31 = icmp slt i32 %26, %30
  br i1 %31, label %32, label %41

32:                                               ; preds = %24
  %33 = getelementptr inbounds nuw %struct.ForEachState, ptr %8, i32 0, i32 0
  %34 = load ptr, ptr %33, align 8
  %35 = getelementptr inbounds nuw %struct.List, ptr %34, i32 0, i32 3
  %36 = load ptr, ptr %35, align 8
  %37 = getelementptr inbounds nuw %struct.ForEachState, ptr %8, i32 0, i32 1
  %38 = load i32, ptr %37, align 8
  %39 = sext i32 %38 to i64
  %40 = getelementptr inbounds %union.ListCell, ptr %36, i64 %39
  store ptr %40, ptr %7, align 8
  br label %42

41:                                               ; preds = %24, %20
  store ptr null, ptr %7, align 8
  br label %42

42:                                               ; preds = %41, %32
  %43 = phi i32 [ 1, %32 ], [ 0, %41 ]
  %44 = icmp ne i32 %43, 0
  br i1 %44, label %46, label %45

45:                                               ; preds = %42
  call void @llvm.lifetime.end.p0(i64 16, ptr %8) #8
  br label %57

46:                                               ; preds = %42
  %47 = load ptr, ptr %6, align 8
  %48 = load ptr, ptr %3, align 8
  %49 = load ptr, ptr %7, align 8
  %50 = load ptr, ptr %49, align 8
  %51 = call ptr @transformExprRecurse(ptr noundef %48, ptr noundef %50)
  %52 = call ptr @lappend(ptr noundef %47, ptr noundef %51)
  store ptr %52, ptr %6, align 8
  br label %53

53:                                               ; preds = %46
  %54 = getelementptr inbounds nuw %struct.ForEachState, ptr %8, i32 0, i32 1
  %55 = load i32, ptr %54, align 8
  %56 = add i32 %55, 1
  store i32 %56, ptr %54, align 8
  br label %20, !llvm.loop !14

57:                                               ; preds = %45
  %58 = load ptr, ptr %4, align 8
  %59 = getelementptr inbounds nuw %struct.FuncCall, ptr %58, i32 0, i32 6
  %60 = load i8, ptr %59, align 8, !range !6, !noundef !7
  %61 = trunc i8 %60 to i1
  br i1 %61, label %62, label %110

62:                                               ; preds = %57
  call void @llvm.lifetime.start.p0(i64 16, ptr %9) #8
  %63 = getelementptr inbounds nuw %struct.ForEachState, ptr %9, i32 0, i32 0
  %64 = load ptr, ptr %4, align 8
  %65 = getelementptr inbounds nuw %struct.FuncCall, ptr %64, i32 0, i32 3
  %66 = load ptr, ptr %65, align 8
  store ptr %66, ptr %63, align 8
  %67 = getelementptr inbounds nuw %struct.ForEachState, ptr %9, i32 0, i32 1
  store i32 0, ptr %67, align 8
  %68 = getelementptr i8, ptr %9, i64 12
  call void @llvm.memset.p0.i64(ptr align 4 %68, i8 0, i64 4, i1 false)
  br label %69

69:                                               ; preds = %105, %62
  %70 = getelementptr inbounds nuw %struct.ForEachState, ptr %9, i32 0, i32 0
  %71 = load ptr, ptr %70, align 8
  %72 = icmp ne ptr %71, null
  br i1 %72, label %73, label %90

73:                                               ; preds = %69
  %74 = getelementptr inbounds nuw %struct.ForEachState, ptr %9, i32 0, i32 1
  %75 = load i32, ptr %74, align 8
  %76 = getelementptr inbounds nuw %struct.ForEachState, ptr %9, i32 0, i32 0
  %77 = load ptr, ptr %76, align 8
  %78 = getelementptr inbounds nuw %struct.List, ptr %77, i32 0, i32 1
  %79 = load i32, ptr %78, align 4
  %80 = icmp slt i32 %75, %79
  br i1 %80, label %81, label %90

81:                                               ; preds = %73
  %82 = getelementptr inbounds nuw %struct.ForEachState, ptr %9, i32 0, i32 0
  %83 = load ptr, ptr %82, align 8
  %84 = getelementptr inbounds nuw %struct.List, ptr %83, i32 0, i32 3
  %85 = load ptr, ptr %84, align 8
  %86 = getelementptr inbounds nuw %struct.ForEachState, ptr %9, i32 0, i32 1
  %87 = load i32, ptr %86, align 8
  %88 = sext i32 %87 to i64
  %89 = getelementptr inbounds %union.ListCell, ptr %85, i64 %88
  store ptr %89, ptr %7, align 8
  br label %91

90:                                               ; preds = %73, %69
  store ptr null, ptr %7, align 8
  br label %91

91:                                               ; preds = %90, %81
  %92 = phi i32 [ 1, %81 ], [ 0, %90 ]
  %93 = icmp ne i32 %92, 0
  br i1 %93, label %95, label %94

94:                                               ; preds = %91
  call void @llvm.lifetime.end.p0(i64 16, ptr %9) #8
  br label %109

95:                                               ; preds = %91
  call void @llvm.lifetime.start.p0(i64 8, ptr %10) #8
  %96 = load ptr, ptr %7, align 8
  %97 = load ptr, ptr %96, align 8
  store ptr %97, ptr %10, align 8
  %98 = load ptr, ptr %6, align 8
  %99 = load ptr, ptr %3, align 8
  %100 = load ptr, ptr %10, align 8
  %101 = getelementptr inbounds nuw %struct.SortBy, ptr %100, i32 0, i32 1
  %102 = load ptr, ptr %101, align 8
  %103 = call ptr @transformExpr(ptr noundef %99, ptr noundef %102, i32 noundef 20)
  %104 = call ptr @lappend(ptr noundef %98, ptr noundef %103)
  store ptr %104, ptr %6, align 8
  call void @llvm.lifetime.end.p0(i64 8, ptr %10) #8
  br label %105

105:                                              ; preds = %95
  %106 = getelementptr inbounds nuw %struct.ForEachState, ptr %9, i32 0, i32 1
  %107 = load i32, ptr %106, align 8
  %108 = add i32 %107, 1
  store i32 %108, ptr %106, align 8
  br label %69, !llvm.loop !15

109:                                              ; preds = %94
  br label %110

110:                                              ; preds = %109, %57
  %111 = load ptr, ptr %3, align 8
  %112 = load ptr, ptr %4, align 8
  %113 = getelementptr inbounds nuw %struct.FuncCall, ptr %112, i32 0, i32 1
  %114 = load ptr, ptr %113, align 8
  %115 = load ptr, ptr %6, align 8
  %116 = load ptr, ptr %5, align 8
  %117 = load ptr, ptr %4, align 8
  %118 = load ptr, ptr %4, align 8
  %119 = getelementptr inbounds nuw %struct.FuncCall, ptr %118, i32 0, i32 11
  %120 = load i32, ptr %119, align 8
  %121 = call ptr @ParseFuncOrColumn(ptr noundef %111, ptr noundef %114, ptr noundef %115, ptr noundef %116, ptr noundef %117, i1 noundef zeroext false, i32 noundef %120)
  call void @llvm.lifetime.end.p0(i64 8, ptr %7) #8
  call void @llvm.lifetime.end.p0(i64 8, ptr %6) #8
  call void @llvm.lifetime.end.p0(i64 8, ptr %5) #8
  ret ptr %121
}