; Function Attrs: nounwind uwtable
define internal fastcc ptr @transformFuncCall(ptr noundef %0, ptr noundef nonnull %1) unnamed_addr #0 {
  %3 = getelementptr inbounds nuw i8, ptr %0, i64 192
  %4 = load ptr, ptr %3, align 8
  %5 = getelementptr inbounds nuw i8, ptr %1, i64 16
  %6 = load ptr, ptr %5, align 8
  %7 = getelementptr inbounds nuw i8, ptr %6, i64 4
  %.not = icmp eq ptr %6, null
  br i1 %.not, label %._crit_edge, label %.lr.ph

.lr.ph:                                           ; preds = %2
  %8 = getelementptr inbounds nuw i8, ptr %6, i64 16
  %9 = load i32, ptr %7, align 4
  %10 = icmp sgt i32 %9, 0
  br i1 %10, label %.lr.ph48, label %._crit_edge

._crit_edge:                                      ; preds = %.lr.ph48, %.lr.ph, %2
  %.0.lcssa = phi ptr [ null, %2 ], [ null, %.lr.ph ], [ %18, %.lr.ph48 ]
  %11 = getelementptr inbounds nuw i8, ptr %1, i64 48
  %12 = load i8, ptr %11, align 8, !range !4, !noundef !5
  %13 = trunc nuw i8 %12 to i1
  br i1 %13, label %22, label %.thread38

.lr.ph48:                                         ; preds = %.lr.ph, %.lr.ph48
  %indvars.iv = phi i64 [ %indvars.iv.next, %.lr.ph48 ], [ 0, %.lr.ph ]
  %.04246 = phi ptr [ %18, %.lr.ph48 ], [ null, %.lr.ph ]
  %14 = load ptr, ptr %8, align 8
  %15 = getelementptr inbounds nuw %union.ListCell, ptr %14, i64 %indvars.iv
  %16 = load ptr, ptr %15, align 8
  %17 = tail call fastcc ptr @transformExprRecurse(ptr noundef %0, ptr noundef %16)
  %18 = tail call ptr @lappend(ptr noundef %.04246, ptr noundef %17) #9
  %indvars.iv.next = add nuw nsw i64 %indvars.iv, 1
  %19 = load i32, ptr %7, align 4
  %20 = sext i32 %19 to i64
  %21 = icmp slt i64 %indvars.iv.next, %20
  br i1 %21, label %.lr.ph48, label %._crit_edge

22:                                               ; preds = %._crit_edge
  %23 = getelementptr inbounds nuw i8, ptr %1, i64 24
  %24 = load ptr, ptr %23, align 8
  %25 = getelementptr inbounds nuw i8, ptr %24, i64 4
  %.not33 = icmp eq ptr %24, null
  br i1 %.not33, label %.thread38, label %.lr.ph53

.lr.ph53:                                         ; preds = %22
  %26 = getelementptr inbounds nuw i8, ptr %24, i64 16
  %27 = getelementptr inbounds nuw i8, ptr %0, i64 144
  %28 = load i32, ptr %25, align 4
  %29 = icmp sgt i32 %28, 0
  br i1 %29, label %.lr.ph61, label %.thread38

.lr.ph61:                                         ; preds = %.lr.ph53, %.lr.ph61
  %indvars.iv65 = phi i64 [ %indvars.iv.next66, %.lr.ph61 ], [ 0, %.lr.ph53 ]
  %.25159 = phi ptr [ %37, %.lr.ph61 ], [ %.0.lcssa, %.lr.ph53 ]
  %30 = load ptr, ptr %26, align 8
  %31 = getelementptr inbounds nuw %union.ListCell, ptr %30, i64 %indvars.iv65
  %32 = load ptr, ptr %31, align 8
  %33 = getelementptr inbounds nuw i8, ptr %32, i64 8
  %34 = load ptr, ptr %33, align 8
  %35 = load i32, ptr %27, align 8
  store i32 20, ptr %27, align 8
  %36 = tail call fastcc ptr @transformExprRecurse(ptr noundef %0, ptr noundef %34)
  store i32 %35, ptr %27, align 8
  %37 = tail call ptr @lappend(ptr noundef %.25159, ptr noundef %36) #9
  %indvars.iv.next66 = add nuw nsw i64 %indvars.iv65, 1
  %38 = load i32, ptr %25, align 4
  %39 = sext i32 %38 to i64
  %40 = icmp slt i64 %indvars.iv.next66, %39
  br i1 %40, label %.lr.ph61, label %.thread38

.thread38:                                        ; preds = %.lr.ph61, %22, %.lr.ph53, %._crit_edge
  %.1 = phi ptr [ %.0.lcssa, %._crit_edge ], [ %.0.lcssa, %22 ], [ %.0.lcssa, %.lr.ph53 ], [ %37, %.lr.ph61 ]
  %41 = getelementptr inbounds nuw i8, ptr %1, i64 8
  %42 = load ptr, ptr %41, align 8
  %43 = getelementptr inbounds nuw i8, ptr %1, i64 56
  %44 = load i32, ptr %43, align 8
  %45 = tail call ptr @ParseFuncOrColumn(ptr noundef %0, ptr noundef %42, ptr noundef %.1, ptr noundef %4, ptr noundef nonnull %1, i1 noundef zeroext false, i32 noundef %44) #9
  ret ptr %45
}